target datalayout = "e-m:e-p270:32:32-p271:32:32-p272:64:64-i64:64-i128:128-f80:128-n8:16:32:64-S128"
target triple = "x86_64-pc-linux-gnu"

%struct.ShutdownInformation = type { ptr, ptr }
%struct.DumpSignalInformation = type { ptr, ptr, i8, i8 }
%struct.ParallelSlot = type { i32, ptr, ptr, ptr, i32, i32, i32, i32, i32 }
%struct._archiveHandle = type { %struct.Archive, i32, ptr, ptr, i64, i64, i32, %struct.sqlparseInfo, i64, i32, ptr, i64, i64, i64, ptr, ptr, ptr, ptr, ptr, ptr, ptr, ptr, ptr, ptr, ptr, ptr, ptr, ptr, ptr, ptr, ptr, ptr, ptr, ptr, ptr, ptr, ptr, ptr, ptr, ptr, ptr, ptr, ptr, ptr, i32, i32, i8, i32, i8, i32, ptr, ptr, ptr, ptr, i32, i32, ptr, ptr, ptr, %struct.pg_compress_specification, i8, i32, i32, ptr, ptr, ptr, ptr, ptr, i32, ptr, i64, i64, i32, i32, i32, i32, ptr, ptr }
%struct.Archive = type { ptr, ptr, i32, ptr, i32, i8, i32, i32, i32, ptr, i32, i8, ptr, ptr, i8, i32, ptr }
%struct.sqlparseInfo = type { i32, i8, ptr }
%struct.pg_compress_specification = type { i32, i32, i32, i32, i8, ptr }
%struct.ParallelState = type { i32, ptr, ptr }

@shutdown_info = internal global %struct.ShutdownInformation zeroinitializer, align 8
@signal_info = internal global %struct.DumpSignalInformation zeroinitializer, align 8
@.str = private unnamed_addr constant [44 x i8] c"could not create communication channels: %m\00", align 1
@.str.1 = private unnamed_addr constant [36 x i8] c"could not create worker process: %m\00", align 1

; Function Attrs: nounwind uwtable
define internal void @set_cancel_handler() #0 {
  %1 = load volatile i8, ptr getelementptr inbounds nuw (%struct.DumpSignalInformation, ptr @signal_info, i32 0, i32 2), align 8, !range !4, !noundef !5
  %2 = trunc i8 %1 to i1
  br i1 %2, label %4, label %3

3:                                                ; preds = %0
  store volatile i8 1, ptr getelementptr inbounds nuw (%struct.DumpSignalInformation, ptr @signal_info, i32 0, i32 2), align 8
  call void @pqsignal_fe(i32 noundef 2, ptr noundef @sigTermHandler)
  call void @pqsignal_fe(i32 noundef 15, ptr noundef @sigTermHandler)
  call void @pqsignal_fe(i32 noundef 3, ptr noundef @sigTermHandler)
  br label %4

4:                                                ; preds = %3, %0
  ret void
}

; Function Attrs: nounwind uwtable
define internal void @set_cancel_pstate(ptr noundef %0) #0 {
  %2 = alloca ptr, align 8
  store ptr %0, ptr %2, align 8
  %3 = load ptr, ptr %2, align 8
  store volatile ptr %3, ptr getelementptr inbounds nuw (%struct.DumpSignalInformation, ptr @signal_info, i32 0, i32 1), align 8
  ret void
}

; Function Attrs: nounwind uwtable
define dso_local void @set_archive_cancel_info(ptr noundef %0, ptr noundef %1) #0 {
  %3 = alloca ptr, align 8
  %4 = alloca ptr, align 8
  %5 = alloca ptr, align 8
  store ptr %0, ptr %3, align 8
  store ptr %1, ptr %4, align 8
  call void @llvm.lifetime.start.p0(i64 8, ptr %5) #10
  call void @set_cancel_handler()
  %6 = load ptr, ptr %3, align 8
  %7 = getelementptr inbounds nuw %struct._archiveHandle, ptr %6, i32 0, i32 43
  %8 = load volatile ptr, ptr %7, align 8
  store ptr %8, ptr %5, align 8
  %9 = load ptr, ptr %3, align 8
  %10 = getelementptr inbounds nuw %struct._archiveHandle, ptr %9, i32 0, i32 43
  store volatile ptr null, ptr %10, align 8
  %11 = load ptr, ptr %5, align 8
  %12 = icmp ne ptr %11, null
  br i1 %12, label %13, label %15

13:                                               ; preds = %2
  %14 = load ptr, ptr %5, align 8
  call void @PQfreeCancel(ptr noundef %14)
  br label %15

15:                                               ; preds = %13, %2
  %16 = load ptr, ptr %4, align 8
  %17 = icmp ne ptr %16, null
  br i1 %17, label %18, label %23

18:                                               ; preds = %15
  %19 = load ptr, ptr %4, align 8
  %20 = call ptr @PQgetCancel(ptr noundef %19)
  %21 = load ptr, ptr %3, align 8
  %22 = getelementptr inbounds nuw %struct._archiveHandle, ptr %21, i32 0, i32 43
  store volatile ptr %20, ptr %22, align 8
  br label %23

23:                                               ; preds = %18, %15
  %24 = load ptr, ptr %3, align 8
  store volatile ptr %24, ptr @signal_info, align 8
  call void @llvm.lifetime.end.p0(i64 8, ptr %5) #10
  ret void
}

; Function Attrs: nounwind uwtable
define dso_local ptr @ParallelBackupStart(ptr noundef %0) #0 {
  %2 = alloca ptr, align 8
  %3 = alloca ptr, align 8
  %4 = alloca ptr, align 8
  %5 = alloca i32, align 4
  %6 = alloca i32, align 4
  %7 = alloca i32, align 4
  %8 = alloca ptr, align 8
  %9 = alloca [2 x i32], align 4
  %10 = alloca [2 x i32], align 4
  %11 = alloca i32, align 4
  store ptr %0, ptr %3, align 8
  call void @llvm.lifetime.start.p0(i64 8, ptr %4) #10
  call void @llvm.lifetime.start.p0(i64 4, ptr %5) #10
  %12 = call ptr @pg_malloc(i64 noundef 24)
  store ptr %12, ptr %4, align 8
  %13 = load ptr, ptr %3, align 8
  %14 = getelementptr inbounds nuw %struct._archiveHandle, ptr %13, i32 0, i32 0
  %15 = getelementptr inbounds nuw %struct.Archive, ptr %14, i32 0, i32 8
  %16 = load i32, ptr %15, align 8
  %17 = load ptr, ptr %4, align 8
  %18 = getelementptr inbounds nuw %struct.ParallelState, ptr %17, i32 0, i32 0
  store i32 %16, ptr %18, align 8
  %19 = load ptr, ptr %4, align 8
  %20 = getelementptr inbounds nuw %struct.ParallelState, ptr %19, i32 0, i32 1
  store ptr null, ptr %20, align 8
  %21 = load ptr, ptr %4, align 8
  %22 = getelementptr inbounds nuw %struct.ParallelState, ptr %21, i32 0, i32 2
  store ptr null, ptr %22, align 8
  %23 = load ptr, ptr %3, align 8
  %24 = getelementptr inbounds nuw %struct._archiveHandle, ptr %23, i32 0, i32 0
  %25 = getelementptr inbounds nuw %struct.Archive, ptr %24, i32 0, i32 8
  %26 = load i32, ptr %25, align 8
  %27 = icmp eq i32 %26, 1
  br i1 %27, label %28, label %30

28:                                               ; preds = %1
  %29 = load ptr, ptr %4, align 8
  store ptr %29, ptr %2, align 8
  store i32 1, ptr %6, align 4
  br label %163

30:                                               ; preds = %1
  %31 = load ptr, ptr %4, align 8
  %32 = getelementptr inbounds nuw %struct.ParallelState, ptr %31, i32 0, i32 0
  %33 = load i32, ptr %32, align 8
  %34 = sext i32 %33 to i64
  %35 = mul i64 %34, 8
  %36 = call ptr @pg_malloc0(i64 noundef %35)
  %37 = load ptr, ptr %4, align 8
  %38 = getelementptr inbounds nuw %struct.ParallelState, ptr %37, i32 0, i32 1
  store ptr %36, ptr %38, align 8
  %39 = load ptr, ptr %4, align 8
  %40 = getelementptr inbounds nuw %struct.ParallelState, ptr %39, i32 0, i32 0
  %41 = load i32, ptr %40, align 8
  %42 = sext i32 %41 to i64
  %43 = mul i64 %42, 56
  %44 = call ptr @pg_malloc0(i64 noundef %43)
  %45 = load ptr, ptr %4, align 8
  %46 = getelementptr inbounds nuw %struct.ParallelState, ptr %45, i32 0, i32 2
  store ptr %44, ptr %46, align 8
  %47 = load ptr, ptr %4, align 8
  store ptr %47, ptr @shutdown_info, align 8
  %48 = load ptr, ptr %3, align 8
  call void @set_archive_cancel_info(ptr noundef %48, ptr noundef null)
  %49 = call i32 @fflush(ptr noundef null)
  store i32 0, ptr %5, align 4
  br label %50

50:                                               ; preds = %153, %30
  %51 = load i32, ptr %5, align 4
  %52 = load ptr, ptr %4, align 8
  %53 = getelementptr inbounds nuw %struct.ParallelState, ptr %52, i32 0, i32 0
  %54 = load i32, ptr %53, align 8
  %55 = icmp slt i32 %51, %54
  br i1 %55, label %56, label %156

56:                                               ; preds = %50
  call void @llvm.lifetime.start.p0(i64 4, ptr %7) #10
  call void @llvm.lifetime.start.p0(i64 8, ptr %8) #10
  %57 = load ptr, ptr %4, align 8
  %58 = getelementptr inbounds nuw %struct.ParallelState, ptr %57, i32 0, i32 2
  %59 = load ptr, ptr %58, align 8
  %60 = load i32, ptr %5, align 4
  %61 = sext i32 %60 to i64
  %62 = getelementptr inbounds %struct.ParallelSlot, ptr %59, i64 %61
  store ptr %62, ptr %8, align 8
  call void @llvm.lifetime.start.p0(i64 8, ptr %9) #10
  call void @llvm.lifetime.start.p0(i64 8, ptr %10) #10
  %63 = getelementptr inbounds [2 x i32], ptr %9, i64 0, i64 0
  %64 = call i32 @pipe(ptr noundef %63) #10
  %65 = icmp slt i32 %64, 0
  br i1 %65, label %70, label %66

66:                                               ; preds = %56
  %67 = getelementptr inbounds [2 x i32], ptr %10, i64 0, i64 0
  %68 = call i32 @pipe(ptr noundef %67) #10
  %69 = icmp slt i32 %68, 0
  br i1 %69, label %70, label %74

70:                                               ; preds = %66, %56
  br label %71

71:                                               ; preds = %70
  call void (i32, i32, ptr, ...) @pg_log_generic(i32 noundef 4, i32 noundef 0, ptr noundef @.str)
  call void @exit_nicely(i32 noundef 1) #11
  unreachable

72:                                               ; No predecessors!
  br label %73

73:                                               ; preds = %72
  br label %74

74:                                               ; preds = %73, %66
  %75 = getelementptr inbounds [2 x i32], ptr %10, i64 0, i64 0
  %76 = load i32, ptr %75, align 4
  %77 = load ptr, ptr %8, align 8
  %78 = getelementptr inbounds nuw %struct.ParallelSlot, ptr %77, i32 0, i32 4
  store i32 %76, ptr %78, align 8
  %79 = getelementptr inbounds [2 x i32], ptr %9, i64 0, i64 1
  %80 = load i32, ptr %79, align 4
  %81 = load ptr, ptr %8, align 8
  %82 = getelementptr inbounds nuw %struct.ParallelSlot, ptr %81, i32 0, i32 5
  store i32 %80, ptr %82, align 4
  %83 = getelementptr inbounds [2 x i32], ptr %9, i64 0, i64 0
  %84 = load i32, ptr %83, align 4
  %85 = load ptr, ptr %8, align 8
  %86 = getelementptr inbounds nuw %struct.ParallelSlot, ptr %85, i32 0, i32 6
  store i32 %84, ptr %86, align 8
  %87 = getelementptr inbounds [2 x i32], ptr %10, i64 0, i64 1
  %88 = load i32, ptr %87, align 4
  %89 = load ptr, ptr %8, align 8
  %90 = getelementptr inbounds nuw %struct.ParallelSlot, ptr %89, i32 0, i32 7
  store i32 %88, ptr %90, align 4
  %91 = call i32 @fork() #10
  store i32 %91, ptr %7, align 4
  %92 = load i32, ptr %7, align 4
  %93 = icmp eq i32 %92, 0
  br i1 %93, label %94, label %133

94:                                               ; preds = %74
  call void @llvm.lifetime.start.p0(i64 4, ptr %11) #10
  %95 = call i32 @getpid() #10
  %96 = load ptr, ptr %8, align 8
  %97 = getelementptr inbounds nuw %struct.ParallelSlot, ptr %96, i32 0, i32 8
  store i32 %95, ptr %97, align 8
  store volatile i8 1, ptr getelementptr inbounds nuw (%struct.DumpSignalInformation, ptr @signal_info, i32 0, i32 3), align 1
  %98 = getelementptr inbounds [2 x i32], ptr %10, i64 0, i64 0
  %99 = load i32, ptr %98, align 4
  %100 = call i32 @close(i32 noundef %99)
  %101 = getelementptr inbounds [2 x i32], ptr %9, i64 0, i64 1
  %102 = load i32, ptr %101, align 4
  %103 = call i32 @close(i32 noundef %102)
  store i32 0, ptr %11, align 4
  br label %104

104:                                              ; preds = %127, %94
  %105 = load i32, ptr %11, align 4
  %106 = load i32, ptr %5, align 4
  %107 = icmp slt i32 %105, %106
  br i1 %107, label %108, label %130

108:                                              ; preds = %104
  %109 = load ptr, ptr %4, align 8
  %110 = getelementptr inbounds nuw %struct.ParallelState, ptr %109, i32 0, i32 2
  %111 = load ptr, ptr %110, align 8
  %112 = load i32, ptr %11, align 4
  %113 = sext i32 %112 to i64
  %114 = getelementptr inbounds %struct.ParallelSlot, ptr %111, i64 %113
  %115 = getelementptr inbounds nuw %struct.ParallelSlot, ptr %114, i32 0, i32 4
  %116 = load i32, ptr %115, align 8
  %117 = call i32 @close(i32 noundef %116)
  %118 = load ptr, ptr %4, align 8
  %119 = getelementptr inbounds nuw %struct.ParallelState, ptr %118, i32 0, i32 2
  %120 = load ptr, ptr %119, align 8
  %121 = load i32, ptr %11, align 4
  %122 = sext i32 %121 to i64
  %123 = getelementptr inbounds %struct.ParallelSlot, ptr %120, i64 %122
  %124 = getelementptr inbounds nuw %struct.ParallelSlot, ptr %123, i32 0, i32 5
  %125 = load i32, ptr %124, align 4
  %126 = call i32 @close(i32 noundef %125)
  br label %127

127:                                              ; preds = %108
  %128 = load i32, ptr %11, align 4
  %129 = add i32 %128, 1
  store i32 %129, ptr %11, align 4
  br label %104, !llvm.loop !6

130:                                              ; preds = %104
  %131 = load ptr, ptr %3, align 8
  %132 = load ptr, ptr %8, align 8
  call void @RunWorker(ptr noundef %131, ptr noundef %132)
  call void @exit(i32 noundef 0) #12
  unreachable

133:                                              ; preds = %74
  %134 = load i32, ptr %7, align 4
  %135 = icmp slt i32 %134, 0
  br i1 %135, label %136, label %140

136:                                              ; preds = %133
  br label %137

137:                                              ; preds = %136
  call void (i32, i32, ptr, ...) @pg_log_generic(i32 noundef 4, i32 noundef 0, ptr noundef @.str.1)
  call void @exit_nicely(i32 noundef 1) #11
  unreachable

138:                                              ; No predecessors!
  br label %139

139:                                              ; preds = %138
  br label %140

140:                                              ; preds = %139, %133
  br label %141

141:                                              ; preds = %140
  %142 = load i32, ptr %7, align 4
  %143 = load ptr, ptr %8, align 8
  %144 = getelementptr inbounds nuw %struct.ParallelSlot, ptr %143, i32 0, i32 8
  store i32 %142, ptr %144, align 8
  %145 = load ptr, ptr %8, align 8
  %146 = getelementptr inbounds nuw %struct.ParallelSlot, ptr %145, i32 0, i32 0
  store i32 1, ptr %146, align 8
  %147 = getelementptr inbounds [2 x i32], ptr %9, i64 0, i64 0
  %148 = load i32, ptr %147, align 4
  %149 = call i32 @close(i32 noundef %148)
  %150 = getelementptr inbounds [2 x i32], ptr %10, i64 0, i64 1
  %151 = load i32, ptr %150, align 4
  %152 = call i32 @close(i32 noundef %151)
  call void @llvm.lifetime.end.p0(i64 8, ptr %10) #10
  call void @llvm.lifetime.end.p0(i64 8, ptr %9) #10
  call void @llvm.lifetime.end.p0(i64 8, ptr %8) #10
  call void @llvm.lifetime.end.p0(i64 4, ptr %7) #10
  br label %153

153:                                              ; preds = %141
  %154 = load i32, ptr %5, align 4
  %155 = add i32 %154, 1
  store i32 %155, ptr %5, align 4
  br label %50, !llvm.loop !8

156:                                              ; preds = %50
  call void @pqsignal_fe(i32 noundef 13, ptr noundef inttoptr (i64 1 to ptr))
  %157 = load ptr, ptr %3, align 8
  %158 = load ptr, ptr %3, align 8
  %159 = getelementptr inbounds nuw %struct._archiveHandle, ptr %158, i32 0, i32 42
  %160 = load ptr, ptr %159, align 8
  call void @set_archive_cancel_info(ptr noundef %157, ptr noundef %160)
  %161 = load ptr, ptr %4, align 8
  call void @set_cancel_pstate(ptr noundef %161)
  %162 = load ptr, ptr %4, align 8
  store ptr %162, ptr %2, align 8
  store i32 1, ptr %6, align 4
  br label %163

163:                                              ; preds = %156, %28
  call void @llvm.lifetime.end.p0(i64 4, ptr %5) #10
  call void @llvm.lifetime.end.p0(i64 8, ptr %4) #10
  %164 = load ptr, ptr %2, align 8
  ret ptr %164
}