; Function Attrs: nounwind uwtable
define dso_local noundef ptr @ParallelBackupStart(ptr noundef %0) local_unnamed_addr #1 {
  %2 = alloca [2 x i32], align 4
  %3 = alloca [2 x i32], align 4
  %4 = tail call ptr @pg_malloc(i64 noundef 24) #18
  %5 = getelementptr inbounds nuw i8, ptr %0, i64 48
  %6 = load i32, ptr %5, align 8
  store i32 %6, ptr %4, align 8
  %7 = getelementptr inbounds nuw i8, ptr %4, i64 8
  %8 = getelementptr inbounds nuw i8, ptr %4, i64 16
  tail call void @llvm.memset.p0.i64(ptr noundef nonnull align 8 dereferenceable(16) %7, i8 0, i64 16, i1 false)
  %9 = load i32, ptr %5, align 8
  %10 = icmp eq i32 %9, 1
  br i1 %10, label %87, label %11

11:                                               ; preds = %1
  %12 = sext i32 %6 to i64
  %13 = shl nsw i64 %12, 3
  %14 = tail call ptr @pg_malloc0(i64 noundef %13) #18
  store ptr %14, ptr %7, align 8
  %15 = load i32, ptr %4, align 8
  %16 = sext i32 %15 to i64
  %17 = mul nsw i64 %16, 56
  %18 = tail call ptr @pg_malloc0(i64 noundef %17) #18
  store ptr %18, ptr %8, align 8
  store ptr %4, ptr @shutdown_info, align 8
  %19 = load volatile i8, ptr getelementptr inbounds nuw (i8, ptr @signal_info, i64 16), align 8, !range !11, !noundef !12
  %20 = trunc nuw i8 %19 to i1
  br i1 %20, label %set_cancel_handler.exit.i, label %21

21:                                               ; preds = %11
  store volatile i8 1, ptr getelementptr inbounds nuw (i8, ptr @signal_info, i64 16), align 8
  tail call void @pqsignal_fe(i32 noundef 2, ptr noundef nonnull @sigTermHandler) #18
  tail call void @pqsignal_fe(i32 noundef 15, ptr noundef nonnull @sigTermHandler) #18
  tail call void @pqsignal_fe(i32 noundef 3, ptr noundef nonnull @sigTermHandler) #18
  br label %set_cancel_handler.exit.i

set_cancel_handler.exit.i:                        ; preds = %21, %11
  %22 = getelementptr inbounds nuw i8, ptr %0, i64 448
  %23 = load volatile ptr, ptr %22, align 8
  store volatile ptr null, ptr %22, align 8
  %.not.i = icmp eq ptr %23, null
  br i1 %.not.i, label %set_archive_cancel_info.exit, label %24

24:                                               ; preds = %set_cancel_handler.exit.i
  tail call void @PQfreeCancel(ptr noundef nonnull %23) #18
  br label %set_archive_cancel_info.exit

set_archive_cancel_info.exit:                     ; preds = %set_cancel_handler.exit.i, %24
  store volatile ptr %0, ptr @signal_info, align 8
  %25 = tail call i32 @fflush(ptr noundef null)
  %26 = load i32, ptr %4, align 8
  %27 = icmp sgt i32 %26, 0
  br i1 %27, label %.lr.ph, label %._crit_edge

.lr.ph:                                           ; preds = %set_archive_cancel_info.exit
  %28 = getelementptr inbounds nuw i8, ptr %2, i64 4
  %29 = getelementptr inbounds nuw i8, ptr %3, i64 4
  br label %30

30:                                               ; preds = %.lr.ph, %68
  %indvars.iv68 = phi i32 [ 0, %.lr.ph ], [ %indvars.iv.next69, %68 ]
  %indvars.iv = phi i64 [ 0, %.lr.ph ], [ %indvars.iv.next, %68 ]
  %31 = load ptr, ptr %8, align 8
  %32 = getelementptr inbounds nuw %struct.ParallelSlot, ptr %31, i64 %indvars.iv
  call void @llvm.lifetime.start.p0(i64 8, ptr nonnull %2) #18
  call void @llvm.lifetime.start.p0(i64 8, ptr nonnull %3) #18
  %33 = call i32 @pipe(ptr noundef nonnull %2) #18
  %34 = icmp slt i32 %33, 0
  br i1 %34, label %38, label %35

35:                                               ; preds = %30
  %36 = call i32 @pipe(ptr noundef nonnull %3) #18
  %37 = icmp slt i32 %36, 0
  br i1 %37, label %38, label %39

38:                                               ; preds = %30, %35
  call void (i32, i32, ptr, ...) @pg_log_generic(i32 noundef 4, i32 noundef 0, ptr noundef nonnull @.str) #18
  call void @exit_nicely(i32 noundef 1) #19
  unreachable

39:                                               ; preds = %35
  %40 = load i32, ptr %3, align 4
  %41 = getelementptr inbounds nuw i8, ptr %32, i64 32
  store i32 %40, ptr %41, align 8
  %42 = load i32, ptr %28, align 4
  %43 = getelementptr inbounds nuw i8, ptr %32, i64 36
  store i32 %42, ptr %43, align 4
  %44 = load i32, ptr %2, align 4
  %45 = getelementptr inbounds nuw i8, ptr %32, i64 40
  store i32 %44, ptr %45, align 8
  %46 = load i32, ptr %29, align 4
  %47 = getelementptr inbounds nuw i8, ptr %32, i64 44
  store i32 %46, ptr %47, align 4
  %48 = call i32 @fork() #18
  %49 = icmp eq i32 %48, 0
  br i1 %49, label %50, label %65

50:                                               ; preds = %39
  %51 = call i32 @getpid() #18
  %52 = getelementptr inbounds nuw i8, ptr %32, i64 48
  store i32 %51, ptr %52, align 8
  store volatile i8 1, ptr getelementptr inbounds nuw (i8, ptr @signal_info, i64 17), align 1
  %53 = load i32, ptr %3, align 4
  %54 = call i32 @close(i32 noundef %53) #18
  %55 = load i32, ptr %28, align 4
  %56 = call i32 @close(i32 noundef %55) #18
  %.not = icmp eq i64 %indvars.iv, 0
  br i1 %.not, label %._crit_edge57, label %.lr.ph56.preheader

.lr.ph56.preheader:                               ; preds = %50
  %wide.trip.count = zext nneg i32 %indvars.iv68 to i64
  br label %.lr.ph56

.lr.ph56:                                         ; preds = %.lr.ph56.preheader, %.lr.ph56
  %indvars.iv65 = phi i64 [ 0, %.lr.ph56.preheader ], [ %indvars.iv.next66, %.lr.ph56 ]
  %57 = load ptr, ptr %8, align 8
  %58 = getelementptr inbounds nuw %struct.ParallelSlot, ptr %57, i64 %indvars.iv65, i32 4
  %59 = load i32, ptr %58, align 8
  %60 = call i32 @close(i32 noundef %59) #18
  %61 = load ptr, ptr %8, align 8
  %62 = getelementptr inbounds nuw %struct.ParallelSlot, ptr %61, i64 %indvars.iv65, i32 5
  %63 = load i32, ptr %62, align 4
  %64 = call i32 @close(i32 noundef %63) #18
  %indvars.iv.next66 = add nuw nsw i64 %indvars.iv65, 1
  %exitcond.not = icmp eq i64 %indvars.iv.next66, %wide.trip.count
  br i1 %exitcond.not, label %._crit_edge57, label %.lr.ph56, !llvm.loop !13

._crit_edge57:                                    ; preds = %.lr.ph56, %50
  call fastcc void @RunWorker(ptr noundef %0, ptr noundef %32)
  call void @exit(i32 noundef 0) #19
  unreachable

65:                                               ; preds = %39
  %66 = icmp slt i32 %48, 0
  br i1 %66, label %67, label %68

67:                                               ; preds = %65
  call void (i32, i32, ptr, ...) @pg_log_generic(i32 noundef 4, i32 noundef 0, ptr noundef nonnull @.str.1) #18
  call void @exit_nicely(i32 noundef 1) #19
  unreachable

68:                                               ; preds = %65
  %69 = getelementptr inbounds nuw i8, ptr %32, i64 48
  store i32 %48, ptr %69, align 8
  store i32 1, ptr %32, align 8
  %70 = load i32, ptr %2, align 4
  %71 = call i32 @close(i32 noundef %70) #18
  %72 = load i32, ptr %29, align 4
  %73 = call i32 @close(i32 noundef %72) #18
  call void @llvm.lifetime.end.p0(i64 8, ptr nonnull %3) #18
  call void @llvm.lifetime.end.p0(i64 8, ptr nonnull %2) #18
  %indvars.iv.next = add nuw nsw i64 %indvars.iv, 1
  %74 = load i32, ptr %4, align 8
  %75 = sext i32 %74 to i64
  %76 = icmp slt i64 %indvars.iv.next, %75
  %indvars.iv.next69 = add nuw nsw i32 %indvars.iv68, 1
  br i1 %76, label %30, label %._crit_edge, !llvm.loop !14

._crit_edge:                                      ; preds = %68, %set_archive_cancel_info.exit
  call void @pqsignal_fe(i32 noundef 13, ptr noundef nonnull inttoptr (i64 1 to ptr)) #18
  %77 = getelementptr inbounds nuw i8, ptr %0, i64 440
  %78 = load ptr, ptr %77, align 8
  %79 = load volatile i8, ptr getelementptr inbounds nuw (i8, ptr @signal_info, i64 16), align 8, !range !11, !noundef !12
  %80 = trunc nuw i8 %79 to i1
  br i1 %80, label %set_cancel_handler.exit.i43, label %81

81:                                               ; preds = %._crit_edge
  store volatile i8 1, ptr getelementptr inbounds nuw (i8, ptr @signal_info, i64 16), align 8
  call void @pqsignal_fe(i32 noundef 2, ptr noundef nonnull @sigTermHandler) #18
  call void @pqsignal_fe(i32 noundef 15, ptr noundef nonnull @sigTermHandler) #18
  call void @pqsignal_fe(i32 noundef 3, ptr noundef nonnull @sigTermHandler) #18
  br label %set_cancel_handler.exit.i43

set_cancel_handler.exit.i43:                      ; preds = %81, %._crit_edge
  %82 = load volatile ptr, ptr %22, align 8
  store volatile ptr null, ptr %22, align 8
  %.not.i44 = icmp eq ptr %82, null
  br i1 %.not.i44, label %84, label %83

83:                                               ; preds = %set_cancel_handler.exit.i43
  call void @PQfreeCancel(ptr noundef nonnull %82) #18
  br label %84

84:                                               ; preds = %83, %set_cancel_handler.exit.i43
  %.not9.i = icmp eq ptr %78, null
  br i1 %.not9.i, label %set_archive_cancel_info.exit45, label %85

85:                                               ; preds = %84
  %86 = call ptr @PQgetCancel(ptr noundef nonnull %78) #18
  store volatile ptr %86, ptr %22, align 8
  br label %set_archive_cancel_info.exit45

set_archive_cancel_info.exit45:                   ; preds = %84, %85
  store volatile ptr %0, ptr @signal_info, align 8
  store volatile ptr %4, ptr getelementptr inbounds nuw (i8, ptr @signal_info, i64 8), align 8
  br label %87

87:                                               ; preds = %1, %set_archive_cancel_info.exit45
  ret ptr %4
}